; Function Attrs: mustprogress nofree norecurse nosync nounwind willreturn memory(read, inaccessiblemem: none) uwtable
define hidden noundef zeroext i1 @_ZNK6google8protobuf14DynamicMessage12is_prototypeEv(ptr noundef nonnull readonly align 8 dereferenceable(28) %0) local_unnamed_addr #5 align 2 {
  %2 = getelementptr inbounds nuw i8, ptr %0, i64 16
  %3 = load ptr, ptr %2, align 8, !tbaa !10
  %4 = getelementptr inbounds nuw i8, ptr %3, i64 64
  %5 = load ptr, ptr %4, align 8, !tbaa !139
  %6 = icmp eq ptr %5, %0
  %7 = icmp eq ptr %5, null
  %spec.select = or i1 %6, %7
  ret i1 %spec.select
}